; Function Attrs: mustprogress nofree norecurse nosync nounwind willreturn memory(readwrite, argmem: none, inaccessiblemem: none) uwtable
define noundef i32 @H5AC_init() local_unnamed_addr #0 {
  %1 = load i8, ptr @H5AC_init_g, align 1, !tbaa !3, !range !7, !noundef !8
  %2 = trunc nuw i8 %1 to i1
  %3 = load i8, ptr @H5_libterm_g, align 1, !range !7
  %4 = trunc nuw i8 %3 to i1
  %5 = select i1 %2, i1 true, i1 %4
  br i1 %5, label %7, label %6, !prof !9

6:                                                ; preds = %0
  store i8 1, ptr @H5AC_init_g, align 1, !tbaa !3
  br label %7

7:                                                ; preds = %6, %0
  ret i32 0
}